Microsoft (R) Macro Assembler Version 5.00                  8/26/23 12:39:21
                                                             Page     1-1


       1				.model small 
       2 0064				.stack 100 
       3 0000				.data 
       4				 
       5 0000  4D 49 4C 4B 24		data1       DB    "MILK",'$' 
       6 0005  0004[			data2       DB    4   dup ('*'),'$' 
       7	   2A			
       8			 ]	
       9       24			
      10				 
      11 000A  49 6E 69 74 69 61 6C	inital      DB    "Initial Content$" 
      12       20 43 6F 6E 74 65 6E	
      13       74 24			
      14 001A  41 66 74 65 72 20 52	after       DB    "After Replacement$" 
      15       65 70 6C 61 63 65 6D	
      16       65 6E 74 24		
      17 002C  41 66 74 65 72 20 52	reversed    DB    "After Reversed$" 
      18       65 76 65 72 73 65 64	
      19       24			
      20				 
      21 003B  64 61 74 61 31 3A 20	data1Name   DB    "data1: $" 
      22       24			
      23 0043  64 61 74 61 32 3A 20	data2Name   DB    "data2: $" 
      24       24			
      25				 
      26 0000				.code 
      27 0000				main proc 
      28				 
      29 0000  B8 ---- R		mov ax,@data 
      30 0003  8E D8			mov ds,ax 
      31 0005  B8 4C00			mov ax,4c00h 
      32				 
      33				; start 
      34				 
      35 0008  E8 009D R		call    NEWLINE 
      36				 
      37 000B  8D 16 000A R		lea     dx,inital 
      38 000F  E8 0096 R		call    PRINT_STR 
      39				 
      40 0012  E8 009D R		call    NEWLINE 
      41				 
      42 0015  E8 0064 R		call    PRINT_DATA  
      43				 
      44 0018  E8 009D R		call    NEWLINE 
      45 001B  E8 009D R		call    NEWLINE 
      46				 
      47 001E  8D 36 0000 R		lea     si,data1 
      48 0022  8D 3E 0005 R		lea     di,data2 
      49 0026				replacementLoop1: 
      50 0026  8A 04			        mov         al,[si] 
      51				 
      52 0028  3C 24			        cmp         al,"$"      ;read u
					ntil $ 
      53 002A  74 06			        je          replacementLoop1exi
Microsoft (R) Macro Assembler Version 5.00                  8/26/23 12:39:21
                                                             Page     1-2


					t 
      54				 
      55 002C  88 05			        mov         [di],al 
      56 002E  46			        inc         si 
      57 002F  47			        inc         di 
      58 0030  EB F4			        jmp         replacementLoop1 
      59 0032				replacementLoop1exit: 
      60				 
      61 0032  8D 16 001A R		lea     dx,after 
      62 0036  E8 0096 R		call    PRINT_STR 
      63				 
      64 0039  E8 009D R		call    NEWLINE 
      65				 
      66 003C  E8 0064 R		call    PRINT_DATA  
      67				 
      68 003F  E8 009D R		call    NEWLINE 
      69 0042  E8 009D R		call    NEWLINE 
      70				 
      71 0045  8D 16 002C R		lea     dx,reversed 
      72 0049  E8 0096 R		call    PRINT_STR 
      73				 
      74 004C  E8 009D R		call    NEWLINE 
      75				 
      76 004F  8D 36 0000 R		lea     si,data1 
      77 0053  8D 3E 0005 R		lea     di,data2 
      78 0057  B9 0004			mov     cx,4d               ;length of 
					string 
      79 005A  E8 0084 R		call    REVERSE_STR 
      80				 
      81 005D  E8 0064 R		call    PRINT_DATA    
      82				;end 
      83				 
      84 0060  B4 4C			mov ah,4ch 
      85 0062  CD 21			int 21h 
      86				 
      87 0064				main endp 
      88				 
      89 0064				PRINT_DATA      PROC 
      90 0064  8D 16 003B R		                        lea     dx,data
					1Name 
      91 0068  E8 0096 R		                        call    PRINT_S
					TR 
      92				 
      93 006B  8D 16 0000 R		                        lea     dx,data
					1 
      94 006F  E8 0096 R		                        call    PRINT_S
					TR 
      95				                         
      96 0072  E8 009D R		                        call    NEWLINE
					 
      97				 
      98 0075  8D 16 0043 R		                        lea     dx,data
					2Name 
      99 0079  E8 0096 R		                        call    PRINT_S
Microsoft (R) Macro Assembler Version 5.00                  8/26/23 12:39:21
                                                             Page     1-3


					TR 
     100				 
     101 007C  8D 16 0005 R		                        lea     dx,data
					2 
     102 0080  E8 0096 R		                        call    PRINT_S
					TR 
     103				                         
     104 0083  C3			                        ret 
     105 0084				PRINT_DATA      ENDP 
     106				 
     107 0084				REVERSE_STR     PROC                   
					         ;reverse SI to DI, length in c
					x 
     108 0084  BB 0000			                        mov     bx  ,  
					 0d      ;BX to be loop counter 
     109 0087  03 F1			                        add     si  ,  
					 cx      ;move si to point to last elem
					ent 
     110 0089  4E			                        dec     si     
					         ;read until before seperator 
     111				 
     112 008A				                        revLoop: 
     113 008A  8A 14			                                mov    
					 dl  ,   [si]         ;move value in dx
					 to dl 
     114 008C  88 15			                                mov    
					 [di],   dl 
     115				 
     116 008E  4E			                                dec    
					 si              ;read backwards 
     117 008F  47			                                inc    
					 di              ;move forwards 
     118				 
     119 0090  43			                                inc    
					 bx              ;loop counter 
     120				 
     121 0091  3B D9			                                cmp    
					 bx,cx 
     122 0093  72 F5			                                jb     
					 revLoop         ;if =< string length  
					    
     123				 
     124 0095  C3			                        ret 
     125 0096				REVERSE_STR     ENDP 
     126				 
     127 0096				PRINT_STR       PROC 
     128 0096  50			                        push    ax 
     129 0097  B4 09			                        mov     ah,09h 
     130 0099  CD 21			                        int     21h 
     131 009B  58			                        pop    ax 
     132 009C  C3			                        ret 
     133 009D				PRINT_STR       ENDP 
     134				 
     135 009D				NEWLINE         PROC 
Microsoft (R) Macro Assembler Version 5.00                  8/26/23 12:39:21
                                                             Page     1-4


     136 009D  50			                        push    ax 
     137 009E  52			                        push    dx 
     138 009F  B2 0A			                        mov     dl,10d 
     139 00A1  B4 02			                        mov     ah,02h 
     140 00A3  CD 21			                        int     21h 
     141 00A5  5A			                        pop     dx 
     142 00A6  58			                        pop     ax 
     143 00A7  C3			                        ret 
     144 00A8				NEWLINE         ENDP 
     145				 
     146 00A8				end main 
Microsoft (R) Macro Assembler Version 5.00                  8/26/23 12:39:21
                                                             Symbols-1


Segments and Groups:

                N a m e         	Length	 Align	Combine Class

DGROUP . . . . . . . . . . . . .  	GROUP
  _DATA  . . . . . . . . . . . .  	004B	WORD	PUBLIC	'DATA'
  STACK  . . . . . . . . . . . .  	0064	PARA	STACK	'STACK'
_TEXT  . . . . . . . . . . . . .  	00A8	WORD	PUBLIC	'CODE'

Symbols:            

                N a m e         	Type	 Value	 Attr

AFTER  . . . . . . . . . . . . .  	L BYTE	001A	_DATA

DATA1  . . . . . . . . . . . . .  	L BYTE	0000	_DATA
DATA1NAME  . . . . . . . . . . .  	L BYTE	003B	_DATA
DATA2  . . . . . . . . . . . . .  	L BYTE	0005	_DATA	Length = 0004
DATA2NAME  . . . . . . . . . . .  	L BYTE	0043	_DATA

INITAL . . . . . . . . . . . . .  	L BYTE	000A	_DATA

MAIN . . . . . . . . . . . . . .  	N PROC	0000	_TEXT	Length = 0064

NEWLINE  . . . . . . . . . . . .  	N PROC	009D	_TEXT	Length = 000B

PRINT_DATA . . . . . . . . . . .  	N PROC	0064	_TEXT	Length = 0020
PRINT_STR  . . . . . . . . . . .  	N PROC	0096	_TEXT	Length = 0007

REPLACEMENTLOOP1 . . . . . . . .  	L NEAR	0026	_TEXT
REPLACEMENTLOOP1EXIT . . . . . .  	L NEAR	0032	_TEXT
REVERSED . . . . . . . . . . . .  	L BYTE	002C	_DATA
REVERSE_STR  . . . . . . . . . .  	N PROC	0084	_TEXT	Length = 0012
REVLOOP  . . . . . . . . . . . .  	L NEAR	008A	_TEXT

@CODE  . . . . . . . . . . . . .  	TEXT  _TEXT		
@CODESIZE  . . . . . . . . . . .  	TEXT  0		
@DATASIZE  . . . . . . . . . . .  	TEXT  0		
@FILENAME  . . . . . . . . . . .  	TEXT  P3Q2		


    135 Source  Lines
    135 Total   Lines
     29 Symbols

  50460 + 466084 Bytes symbol space free

      0 Warning Errors
      0 Severe  Errors
